ccopy_reg
_reconstructor
p0
(cargparse
Namespace
p1
c__builtin__
object
p2
Ntp3
Rp4
(dp5
Vconfig
p6
Vnew_specs.will_test_domain.new_env_hyperparam
p7
sVtest
p8
V
p9
sVdeploy
p10
g9
sVsandbox
p11
I00
sVnobjs
p12
I1
sVntargs
p13
I1
sVnum_motion
p14
I4
sVnum_task
p15
I1
sVnum_rollout
p16
I1
sVnum_test
p17
I0
sVlabel_server
p18
I00
sVclassify_labels
p19
I00
sVmax_label
p20
I-1
sVhist_len
p21
I2
sVtask_hist_len
p22
I1
sVn_gpu
p23
I1
sVadd_obs_delta
p24
I00
sVadd_action_hist
p25
I00
sVadd_task_hist
p26
I00
sVtraj_smooth
p27
I00
sVseq
p28
I00
sVverbose
p29
I00
sVbackup
p30
I00
sVswap
p31
I00
sVfile
p32
g9
sVdescr
p33
Vserver_floorplan_nav_belief_pointerobs_fulllength_taskmap_smallbuf_addobsvisibilitydebug_splitnet_sweepskolemupdate_truetargpred_30minrun
p34
sVsave_expert
p35
I00
sVload_render
p36
I00
sVretime
p37
I00
sVvelocity
p38
F0.3
sVsave_data
p39
I00
sVdebug
p40
I00
sVplan_only
p41
I00
sVstep_debug
p42
I00
sVassume_true
p43
I00
sVabsolute_policy
p44
I00
sVtrig_policy
p45
I00
sVrot_policy
p46
I00
sVstop_on_plan_failure
p47
I00
sVll_policy
p48
g9
sVhl_policy
p49
g9
sVhl_data
p50
g9
sVhl_samples
p51
g9
sVreference_dir
p52
g9
sVsplit_nets
p53
I00
sVdim_hidden
p54
I128
sVn_layers
p55
I4
sVprim_dim_hidden
p56
I128
sVprim_n_layers
p57
I4
sVupdate_size
p58
I100
sVprim_update_size
p59
I100
sVtrain_iterations
p60
I50
sVbatch_size
p61
I256
sVweight_decay
p62
F0.0001
sVprim_weight_decay
p63
F0.0004
sVcont_weight_decay
p64
F0.001
sVlr
p65
F5e-05
sVcontlr
p66
F0.001
sVhllr
p67
F0.001
sVlr_schedule
p68
Vadaptive
p69
sVsplit_hl_loss
p70
I00
sVadd_image
p71
I00
sVadd_hl_image
p72
I00
sVadd_cont_image
p73
I00
sVadd_recur
p74
I00
sVadd_hl_recur
p75
I01
sVimage_width
p76
I256
sVimage_height
p77
I256
sVimage_channels
p78
I3
sVincl_init_obs
p79
I00
sVincl_trans_obs
p80
I00
sVrun_time
p81
I1800
sVcheck_prim_t
p82
I1
sVn_resample
p83
I5
sVff_thresh
p84
F1.0
sVhl_feedback_thresh
p85
F0.0
sVff_only
p86
I00
sVhl_post
p87
I00
sVopt_wt
p88
I00
sVl1_loss
p89
I00
sVrollout_post
p90
I00
sVll_rollout_opt
p91
I00
sVhl_rollout_opt
p92
I00
sVrollout_opt
p93
I00
sVtrain_on_fail
p94
I00
sVfail_mode
p95
Vstart
p96
sVaugment_hl
p97
I00
sVstate_select
p98
Vbase
p99
sVprim_decay
p100
F1.0
sVprim_first_wt
p101
F20.0
sVend_to_end_prob
p102
F0.0
sVsoft
p103
I00
sVeta
p104
F5.0
sVadd_noop
p105
I2
sVflat
p106
I00
sVgoal_type
p107
Vdefault
p108
sVsoft_eval
p109
I01
sVcheck_precond
p110
I01
sVcheck_postcond
p111
I01
sVcheck_midcond
p112
I00
sVcheck_random_switch
p113
I00
sVperc_negative
p114
F0.0
sVperc_optimal
p115
F0.9
sVperc_dagger
p116
F0.1
sVperc_rollout
p117
F0.0
sVperc_human
p118
F0.0
sVnegative
p119
I0
sVneg_precond
p120
I00
sVneg_postcond
p121
I00
sVdagger_window
p122
I0
sVhl_mask
p123
I01
sVrollout_seed
p124
I00
sVuse_switch
p125
I00
sVpermute_hl
p126
I1
sVnum_tests
p127
I25
sVcol_coeff
p128
F0.0
sVexplore_eta
p129
F4.0
sVexplore_wt
p130
F10.0
sVexplore_n
p131
I10
sVexplore_nmax
p132
I1
sVexplore_success
p133
I5
sVwarmup_iters
p134
I100
sVtf_warmup_iters
p135
I0
sVher
p136
I00
sVhindsight
p137
I00
sVexpand_process
p138
I00
sVonehot_task
p139
I00
sVlocal_retime
p140
I00
sVcheck_col
p141
I01
sVconditional
p142
I00
sVeasy
p143
I00
sVindex
p144
I0
sVpretrain
p145
I00
sVnofull
p146
I00
sVnconds
p147
I0
sVhl_timeout
p148
I0
sVkillall
p149
I01
sVremote
p150
I00
sVtiming
p151
I00
sVmcts_server
p152
I00
sVmp_server
p153
I00
sVpolicy_server
p154
I00
sVlog_server
p155
I00
sVview_server
p156
I00
sVall_servers
p157
I00
sVpretrain_steps
p158
I0
sVviewer
p159
I00
sVserver_id
p160
g9
sVhl_retrain
p161
I00
sVhl_only_retrain
p162
I00
sVcurric_thresh
p163
I-1
sVn_thresh
p164
I10
sVview_policy
p165
I00
sVrun_baseline
p166
I00
sb.